target datalayout = "e-m:e-p270:32:32-p271:32:32-p272:64:64-i64:64-i128:128-f80:128-n8:16:32:64-S128"
target triple = "x86_64-pc-linux-gnu"

%struct.ossl_param_st = type { ptr, i32, ptr, i64, i64 }

@.str.20 = private unnamed_addr constant [7 x i8] c"custom\00", align 1

; Function Attrs: nounwind uwtable
define internal i32 @kmac_init(ptr noundef %0, ptr noundef %1, i64 noundef %2) #0 {
  %4 = alloca i32, align 4
  %5 = alloca ptr, align 8
  %6 = alloca ptr, align 8
  %7 = alloca i64, align 8
  %8 = alloca [2 x %struct.ossl_param_st], align 16
  %9 = alloca i32, align 4
  %10 = alloca %struct.ossl_param_st, align 8
  %11 = alloca %struct.ossl_param_st, align 8
  store ptr %0, ptr %5, align 8, !tbaa !37
  store ptr %1, ptr %6, align 8, !tbaa !27
  store i64 %2, ptr %7, align 8, !tbaa !28
  call void @llvm.lifetime.start.p0(i64 80, ptr %8) #6
  %12 = load ptr, ptr %6, align 8, !tbaa !27
  %13 = icmp eq ptr %12, null
  br i1 %13, label %17, label %14

14:                                               ; preds = %3
  %15 = load i64, ptr %7, align 8, !tbaa !28
  %16 = icmp eq i64 %15, 0
  br i1 %16, label %17, label %18

17:                                               ; preds = %14, %3
  store i32 1, ptr %4, align 4
  store i32 1, ptr %9, align 4
  br label %28

18:                                               ; preds = %14
  %19 = getelementptr inbounds [2 x %struct.ossl_param_st], ptr %8, i64 0, i64 0
  call void @llvm.lifetime.start.p0(i64 40, ptr %10) #6
  %20 = load ptr, ptr %6, align 8, !tbaa !27
  %21 = load i64, ptr %7, align 8, !tbaa !28
  call void @OSSL_PARAM_construct_octet_string(ptr dead_on_unwind writable sret(%struct.ossl_param_st) align 8 %10, ptr noundef @.str.20, ptr noundef %20, i64 noundef %21)
  call void @llvm.memcpy.p0.p0.i64(ptr align 16 %19, ptr align 8 %10, i64 40, i1 false), !tbaa.struct !38
  call void @llvm.lifetime.end.p0(i64 40, ptr %10) #6
  %22 = getelementptr inbounds [2 x %struct.ossl_param_st], ptr %8, i64 0, i64 1
  call void @llvm.lifetime.start.p0(i64 40, ptr %11) #6
  call void @OSSL_PARAM_construct_end(ptr dead_on_unwind writable sret(%struct.ossl_param_st) align 8 %11)
  call void @llvm.memcpy.p0.p0.i64(ptr align 8 %22, ptr align 8 %11, i64 40, i1 false), !tbaa.struct !38
  call void @llvm.lifetime.end.p0(i64 40, ptr %11) #6
  %23 = load ptr, ptr %5, align 8, !tbaa !37
  %24 = getelementptr inbounds [2 x %struct.ossl_param_st], ptr %8, i64 0, i64 0
  %25 = call i32 @EVP_MAC_CTX_set_params(ptr noundef %23, ptr noundef %24)
  %26 = icmp sgt i32 %25, 0
  %27 = zext i1 %26 to i32
  store i32 %27, ptr %4, align 4
  store i32 1, ptr %9, align 4
  br label %28

28:                                               ; preds = %18, %17
  call void @llvm.lifetime.end.p0(i64 80, ptr %8) #6
  %29 = load i32, ptr %4, align 4
  ret i32 %29
}