; Function Attrs: nounwind uwtable
define internal fastcc range(i32 0, 2) i32 @kmac_init(ptr noundef nonnull %0, ptr noundef %1, i64 noundef %2) unnamed_addr #0 {
  %4 = alloca [2 x %struct.ossl_param_st], align 16
  %5 = alloca %struct.ossl_param_st, align 8
  call void @llvm.lifetime.start.p0(i64 80, ptr nonnull %4) #7
  %6 = icmp eq ptr %1, null
  %7 = icmp eq i64 %2, 0
  %or.cond = or i1 %6, %7
  br i1 %or.cond, label %13, label %8

8:                                                ; preds = %3
  call void @OSSL_PARAM_construct_octet_string(ptr dead_on_unwind nonnull writable sret(%struct.ossl_param_st) align 8 %4, ptr noundef nonnull @.str.20, ptr noundef nonnull %1, i64 noundef %2) #7
  %9 = getelementptr inbounds nuw i8, ptr %4, i64 40
  call void @llvm.lifetime.start.p0(i64 40, ptr nonnull %5) #7
  call void @OSSL_PARAM_construct_end(ptr dead_on_unwind nonnull writable sret(%struct.ossl_param_st) align 8 %5) #7
  call void @llvm.memcpy.p0.p0.i64(ptr noundef nonnull align 8 dereferenceable(40) %9, ptr noundef nonnull align 8 dereferenceable(40) %5, i64 40, i1 false), !tbaa.struct !27
  call void @llvm.lifetime.end.p0(i64 40, ptr nonnull %5) #7
  %10 = call i32 @EVP_MAC_CTX_set_params(ptr noundef nonnull %0, ptr noundef nonnull %4) #7
  %11 = icmp sgt i32 %10, 0
  %12 = zext i1 %11 to i32
  br label %13

13:                                               ; preds = %3, %8
  %.0 = phi i32 [ %12, %8 ], [ 1, %3 ]
  call void @llvm.lifetime.end.p0(i64 80, ptr nonnull %4) #7
  ret i32 %.0
}